target datalayout = "e-m:e-p270:32:32-p271:32:32-p272:64:64-i64:64-i128:128-f80:128-n8:16:32:64-S128"
target triple = "x86_64-unknown-linux-gnu"

%"class.QuantLib::Date" = type { i64 }
%"class.boost::detail::shared_count" = type { ptr }
%"class.boost::shared_ptr.54" = type { ptr, %"class.boost::detail::shared_count" }
%"class.boost::shared_ptr.55" = type { ptr, %"class.boost::detail::shared_count" }
%"class.QuantLib::NumericHaganPricer::ConundrumIntegrand" = type { %"class.QuantLib::NumericHaganPricer::Function", %"class.boost::shared_ptr.55", double, double, %"class.QuantLib::Date", %"class.QuantLib::Date", double, i32, %"class.boost::shared_ptr.54" }
%"class.QuantLib::NumericHaganPricer::Function" = type { ptr }

@.str.25 = private unnamed_addr constant [8 x i8] c"px != 0\00", align 1
@.str.26 = private unnamed_addr constant [102 x i8] c"generated/home/dtcxzyw/WorkSpace/SDK/vcpkg/installed/x64-linux/include/boost/smart_ptr/shared_ptr.hpp\00", align 1
@__PRETTY_FUNCTION__._ZNK5boost10shared_ptrIN8QuantLib19VanillaOptionPricerEEdeEv = private unnamed_addr constant [152 x i8] c"typename boost::detail::sp_dereference<T>::type boost::shared_ptr<QuantLib::VanillaOptionPricer>::operator*() const [T = QuantLib::VanillaOptionPricer]\00", align 1

; Function Attrs: mustprogress uwtable
define linkonce_odr noundef nonnull align 8 dereferenceable(8) ptr @_ZNK5boost10shared_ptrIN8QuantLib19VanillaOptionPricerEEdeEv(ptr noundef nonnull align 8 dereferenceable(16) %this) #2 comdat align 2 {
entry:
  %this.addr = alloca ptr, align 8
  store ptr %this, ptr %this.addr, align 8, !tbaa !3
  %this1 = load ptr, ptr %this.addr, align 8
  %px = getelementptr inbounds nuw %"class.boost::shared_ptr.55", ptr %this1, i32 0, i32 0
  %0 = load ptr, ptr %px, align 8, !tbaa !62
  %cmp = icmp ne ptr %0, null
  %lnot = xor i1 %cmp, true
  %lnot2 = xor i1 %lnot, true
  %conv = zext i1 %lnot2 to i64
  %expval = call i64 @llvm.expect.i64(i64 %conv, i64 1)
  %tobool = icmp ne i64 %expval, 0
  br i1 %tobool, label %cond.true, label %cond.false

cond.true:                                        ; preds = %entry
  br label %cond.end

cond.false:                                       ; preds = %entry
  call void @_ZN5boost16assertion_failedEPKcS1_S1_l(ptr noundef @.str.25, ptr noundef @__PRETTY_FUNCTION__._ZNK5boost10shared_ptrIN8QuantLib19VanillaOptionPricerEEdeEv, ptr noundef @.str.26, i64 noundef 778)
  br label %cond.end

cond.end:                                         ; preds = %cond.false, %cond.true
  %px3 = getelementptr inbounds nuw %"class.boost::shared_ptr.55", ptr %this1, i32 0, i32 0
  %1 = load ptr, ptr %px3, align 8, !tbaa !62
  ret ptr %1
}

; Function Attrs: mustprogress uwtable
define noundef double @_ZNK8QuantLib18NumericHaganPricer18ConundrumIntegrandclEd(ptr noundef nonnull align 8 dereferenceable(88) %this, double noundef %x) unnamed_addr #2 align 2 {
entry:
  %this.addr = alloca ptr, align 8
  %x.addr = alloca double, align 8
  %option = alloca double, align 8
  store ptr %this, ptr %this.addr, align 8, !tbaa !3
  store double %x, ptr %x.addr, align 8, !tbaa !18
  %this1 = load ptr, ptr %this.addr, align 8
  call void @llvm.lifetime.start.p0(i64 8, ptr %option) #18
  %vanillaOptionPricer_ = getelementptr inbounds nuw %"class.QuantLib::NumericHaganPricer::ConundrumIntegrand", ptr %this1, i32 0, i32 1
  %call = call noundef nonnull align 8 dereferenceable(8) ptr @_ZNK5boost10shared_ptrIN8QuantLib19VanillaOptionPricerEEdeEv(ptr noundef nonnull align 8 dereferenceable(16) %vanillaOptionPricer_)
  %0 = load double, ptr %x.addr, align 8, !tbaa !18
  %optionType_ = getelementptr inbounds nuw %"class.QuantLib::NumericHaganPricer::ConundrumIntegrand", ptr %this1, i32 0, i32 7
  %1 = load i32, ptr %optionType_, align 8, !tbaa !115
  %annuity_ = getelementptr inbounds nuw %"class.QuantLib::NumericHaganPricer::ConundrumIntegrand", ptr %this1, i32 0, i32 3
  %2 = load double, ptr %annuity_, align 8, !tbaa !114
  %vtable = load ptr, ptr %call, align 8, !tbaa !12
  %vfn = getelementptr inbounds ptr, ptr %vtable, i64 2
  %3 = load ptr, ptr %vfn, align 8
  %call2 = call noundef double %3(ptr noundef nonnull align 8 dereferenceable(8) %call, double noundef %0, i32 noundef %1, double noundef %2)
  store double %call2, ptr %option, align 8, !tbaa !18
  %4 = load double, ptr %option, align 8, !tbaa !18
  %5 = load double, ptr %x.addr, align 8, !tbaa !18
  %call3 = call noundef double @_ZNK8QuantLib18NumericHaganPricer18ConundrumIntegrand19secondDerivativeOfFEd(ptr noundef nonnull align 8 dereferenceable(88) %this1, double noundef %5)
  %mul = fmul double %4, %call3
  call void @llvm.lifetime.end.p0(i64 8, ptr %option) #18
  ret double %mul
}