; Function Attrs: mustprogress uwtable
define noundef double @_ZNK8QuantLib18NumericHaganPricer18ConundrumIntegrandclEd(ptr nocapture noundef nonnull readonly align 8 dereferenceable(88) %this, double noundef %x) unnamed_addr #7 align 2 {
entry:
  %vanillaOptionPricer_ = getelementptr inbounds nuw i8, ptr %this, i64 8
  %0 = load ptr, ptr %vanillaOptionPricer_, align 8, !tbaa !128
  %cmp.not.i = icmp eq ptr %0, null
  br i1 %cmp.not.i, label %cond.false.i, label %_ZNK5boost10shared_ptrIN8QuantLib19VanillaOptionPricerEEdeEv.exit, !prof !53

cond.false.i:                                     ; preds = %entry
  tail call void @_ZN5boost16assertion_failedEPKcS1_S1_l(ptr noundef nonnull @.str.25, ptr noundef nonnull @__PRETTY_FUNCTION__._ZNK5boost10shared_ptrIN8QuantLib19VanillaOptionPricerEEdeEv, ptr noundef nonnull @.str.26, i64 noundef 778)
  %.pre.i = load ptr, ptr %vanillaOptionPricer_, align 8, !tbaa !128
  br label %_ZNK5boost10shared_ptrIN8QuantLib19VanillaOptionPricerEEdeEv.exit

_ZNK5boost10shared_ptrIN8QuantLib19VanillaOptionPricerEEdeEv.exit: ; preds = %entry, %cond.false.i
  %1 = phi ptr [ %0, %entry ], [ %.pre.i, %cond.false.i ]
  %optionType_ = getelementptr inbounds nuw i8, ptr %this, i64 64
  %2 = load i32, ptr %optionType_, align 8, !tbaa !196
  %annuity_ = getelementptr inbounds nuw i8, ptr %this, i64 32
  %3 = load double, ptr %annuity_, align 8, !tbaa !195
  %vtable = load ptr, ptr %1, align 8, !tbaa !35
  %vfn = getelementptr inbounds i8, ptr %vtable, i64 16
  %4 = load ptr, ptr %vfn, align 8
  %call2 = tail call noundef double %4(ptr noundef nonnull align 8 dereferenceable(8) %1, double noundef %x, i32 noundef %2, double noundef %3)
  %call3 = tail call noundef double @_ZNK8QuantLib18NumericHaganPricer18ConundrumIntegrand19secondDerivativeOfFEd(ptr noundef nonnull align 8 dereferenceable(88) %this, double noundef %x)
  %mul = fmul double %call2, %call3
  ret double %mul
}